target datalayout = "e-m:e-p270:32:32-p271:32:32-p272:64:64-i64:64-i128:128-f80:128-n8:16:32:64-S128"
target triple = "x86_64-pc-linux-gnu"

%struct.lookup_t = type { i32, ptr, ptr }
%struct.adjust_data = type { i32, ptr, i32, double }

@.str.4 = private unnamed_addr constant [1 x i8] zeroinitializer, align 1
@Verbose = external global i8, align 1
@stderr = external global ptr, align 8
@.str.14 = private unnamed_addr constant [42 x i8] c"Overlap value \22%s\22 unsupported - ignored\0A\00", align 1
@.str.15 = private unnamed_addr constant [47 x i8] c"Unrecognized overlap value \22%s\22 - using false\0A\00", align 1
@.str.16 = private unnamed_addr constant [36 x i8] c"overlap: %s value %d scaling %.04f\0A\00", align 1
@.str.45 = private unnamed_addr constant [3 x i8] c"%d\00", align 1
@.str.46 = private unnamed_addr constant [16 x i8] c"overlap_scaling\00", align 1

; Function Attrs: nounwind uwtable
define internal void @setPrismValues(ptr noundef %0, ptr noundef %1, ptr noundef %2) #0 {
  %4 = alloca ptr, align 8
  %5 = alloca ptr, align 8
  %6 = alloca ptr, align 8
  %7 = alloca i32, align 4
  store ptr %0, ptr %4, align 8, !tbaa !3
  store ptr %1, ptr %5, align 8, !tbaa !50
  store ptr %2, ptr %6, align 8, !tbaa !49
  call void @llvm.lifetime.start.p0(i64 4, ptr %7) #13
  %8 = load ptr, ptr %5, align 8, !tbaa !50
  %9 = call i32 (ptr, ptr, ...) @__isoc99_sscanf(ptr noundef %8, ptr noundef @.str.45, ptr noundef %7) #13
  %10 = icmp sgt i32 %9, 0
  br i1 %10, label %11, label %18

11:                                               ; preds = %3
  %12 = load i32, ptr %7, align 4, !tbaa !16
  %13 = icmp sge i32 %12, 0
  br i1 %13, label %14, label %18

14:                                               ; preds = %11
  %15 = load i32, ptr %7, align 4, !tbaa !16
  %16 = load ptr, ptr %6, align 8, !tbaa !49
  %17 = getelementptr inbounds nuw %struct.adjust_data, ptr %16, i32 0, i32 2
  store i32 %15, ptr %17, align 8, !tbaa !81
  br label %21

18:                                               ; preds = %11, %3
  %19 = load ptr, ptr %6, align 8, !tbaa !49
  %20 = getelementptr inbounds nuw %struct.adjust_data, ptr %19, i32 0, i32 2
  store i32 1000, ptr %20, align 8, !tbaa !81
  br label %21

21:                                               ; preds = %18, %14
  %22 = load ptr, ptr %4, align 8, !tbaa !3
  %23 = load ptr, ptr %4, align 8, !tbaa !3
  %24 = call ptr @agattr(ptr noundef %23, i32 noundef 0, ptr noundef @.str.46, ptr noundef null)
  %25 = call double @late_double(ptr noundef %22, ptr noundef %24, double noundef -4.000000e+00, double noundef -1.000000e+10)
  %26 = load ptr, ptr %6, align 8, !tbaa !49
  %27 = getelementptr inbounds nuw %struct.adjust_data, ptr %26, i32 0, i32 3
  store double %25, ptr %27, align 8, !tbaa !82
  call void @llvm.lifetime.end.p0(i64 4, ptr %7) #13
  ret void
}

; Function Attrs: nounwind uwtable
define internal void @getAdjustMode(ptr noundef %0, ptr noundef %1, ptr noundef %2) #0 {
  %4 = alloca ptr, align 8
  %5 = alloca ptr, align 8
  %6 = alloca ptr, align 8
  %7 = alloca ptr, align 8
  %8 = alloca i8, align 1
  %9 = alloca i32, align 4
  %10 = alloca i8, align 1
  %11 = alloca i8, align 1
  store ptr %0, ptr %4, align 8, !tbaa !3
  store ptr %1, ptr %5, align 8, !tbaa !50
  store ptr %2, ptr %6, align 8, !tbaa !49
  call void @llvm.lifetime.start.p0(i64 8, ptr %7) #13
  store ptr getelementptr inbounds (%struct.lookup_t, ptr @adjustMode, i64 1), ptr %7, align 8, !tbaa !49
  %12 = load ptr, ptr %5, align 8, !tbaa !50
  %13 = icmp eq ptr %12, null
  br i1 %13, label %19, label %14

14:                                               ; preds = %3
  %15 = load ptr, ptr %5, align 8, !tbaa !50
  %16 = load i8, ptr %15, align 1, !tbaa !67
  %17 = sext i8 %16 to i32
  %18 = icmp eq i32 %17, 0
  br i1 %18, label %19, label %25

19:                                               ; preds = %14, %3
  %20 = load ptr, ptr %6, align 8, !tbaa !49
  %21 = getelementptr inbounds nuw %struct.adjust_data, ptr %20, i32 0, i32 0
  store i32 0, ptr %21, align 8, !tbaa !70
  %22 = load ptr, ptr getelementptr inbounds nuw (%struct.lookup_t, ptr @adjustMode, i32 0, i32 2), align 16, !tbaa !72
  %23 = load ptr, ptr %6, align 8, !tbaa !49
  %24 = getelementptr inbounds nuw %struct.adjust_data, ptr %23, i32 0, i32 1
  store ptr %22, ptr %24, align 8, !tbaa !74
  br label %151

25:                                               ; preds = %14
  br label %26

26:                                               ; preds = %104, %25
  %27 = load ptr, ptr %7, align 8, !tbaa !49
  %28 = getelementptr inbounds nuw %struct.lookup_t, ptr %27, i32 0, i32 1
  %29 = load ptr, ptr %28, align 8, !tbaa !75
  %30 = icmp ne ptr %29, null
  br i1 %30, label %31, label %105

31:                                               ; preds = %26
  call void @llvm.lifetime.start.p0(i64 1, ptr %8) #13
  %32 = load ptr, ptr %5, align 8, !tbaa !50
  %33 = load ptr, ptr %7, align 8, !tbaa !49
  %34 = getelementptr inbounds nuw %struct.lookup_t, ptr %33, i32 0, i32 1
  %35 = load ptr, ptr %34, align 8, !tbaa !75
  %36 = call i32 @strcasecmp(ptr noundef %32, ptr noundef %35) #16
  %37 = icmp eq i32 %36, 0
  %38 = zext i1 %37 to i8
  store i8 %38, ptr %8, align 1, !tbaa !76
  %39 = load ptr, ptr %7, align 8, !tbaa !49
  %40 = getelementptr inbounds nuw %struct.lookup_t, ptr %39, i32 0, i32 0
  %41 = load i32, ptr %40, align 8, !tbaa !77
  %42 = icmp eq i32 %41, 18
  br i1 %42, label %43, label %54

43:                                               ; preds = %31
  %44 = load ptr, ptr %5, align 8, !tbaa !50
  %45 = load ptr, ptr %7, align 8, !tbaa !49
  %46 = getelementptr inbounds nuw %struct.lookup_t, ptr %45, i32 0, i32 1
  %47 = load ptr, ptr %46, align 8, !tbaa !75
  %48 = load ptr, ptr %7, align 8, !tbaa !49
  %49 = getelementptr inbounds nuw %struct.lookup_t, ptr %48, i32 0, i32 1
  %50 = load ptr, ptr %49, align 8, !tbaa !75
  %51 = call i64 @strlen(ptr noundef %50) #16
  %52 = call i32 @strncasecmp(ptr noundef %44, ptr noundef %47, i64 noundef %51) #16
  %53 = icmp eq i32 %52, 0
  br label %54

54:                                               ; preds = %43, %31
  %55 = phi i1 [ false, %31 ], [ %53, %43 ]
  %56 = zext i1 %55 to i32
  %57 = load i8, ptr %8, align 1, !tbaa !76, !range !78, !noundef !79
  %58 = trunc i8 %57 to i1
  %59 = zext i1 %58 to i32
  %60 = or i32 %59, %56
  %61 = icmp ne i32 %60, 0
  %62 = zext i1 %61 to i8
  store i8 %62, ptr %8, align 1, !tbaa !76
  %63 = load i8, ptr %8, align 1, !tbaa !76, !range !78, !noundef !79
  %64 = trunc i8 %63 to i1
  br i1 %64, label %65, label %99

65:                                               ; preds = %54
  %66 = load ptr, ptr %7, align 8, !tbaa !49
  %67 = getelementptr inbounds nuw %struct.lookup_t, ptr %66, i32 0, i32 2
  %68 = load ptr, ptr %67, align 8, !tbaa !72
  %69 = icmp eq ptr %68, null
  br i1 %69, label %70, label %74

70:                                               ; preds = %65
  %71 = load ptr, ptr %7, align 8, !tbaa !49
  %72 = getelementptr inbounds nuw %struct.lookup_t, ptr %71, i32 0, i32 1
  %73 = load ptr, ptr %72, align 8, !tbaa !75
  call void (ptr, ...) @agwarningf(ptr noundef @.str.14, ptr noundef %73)
  store ptr getelementptr inbounds ([18 x %struct.lookup_t], ptr @adjustMode, i64 0, i64 1), ptr %7, align 8, !tbaa !49
  br label %74

74:                                               ; preds = %70, %65
  %75 = load ptr, ptr %7, align 8, !tbaa !49
  %76 = getelementptr inbounds nuw %struct.lookup_t, ptr %75, i32 0, i32 0
  %77 = load i32, ptr %76, align 8, !tbaa !77
  %78 = load ptr, ptr %6, align 8, !tbaa !49
  %79 = getelementptr inbounds nuw %struct.adjust_data, ptr %78, i32 0, i32 0
  store i32 %77, ptr %79, align 8, !tbaa !70
  %80 = load ptr, ptr %7, align 8, !tbaa !49
  %81 = getelementptr inbounds nuw %struct.lookup_t, ptr %80, i32 0, i32 2
  %82 = load ptr, ptr %81, align 8, !tbaa !72
  %83 = load ptr, ptr %6, align 8, !tbaa !49
  %84 = getelementptr inbounds nuw %struct.adjust_data, ptr %83, i32 0, i32 1
  store ptr %82, ptr %84, align 8, !tbaa !74
  %85 = load ptr, ptr %7, align 8, !tbaa !49
  %86 = getelementptr inbounds nuw %struct.lookup_t, ptr %85, i32 0, i32 0
  %87 = load i32, ptr %86, align 8, !tbaa !77
  %88 = icmp eq i32 %87, 18
  br i1 %88, label %89, label %98

89:                                               ; preds = %74
  %90 = load ptr, ptr %4, align 8, !tbaa !3
  %91 = load ptr, ptr %5, align 8, !tbaa !50
  %92 = load ptr, ptr %7, align 8, !tbaa !49
  %93 = getelementptr inbounds nuw %struct.lookup_t, ptr %92, i32 0, i32 1
  %94 = load ptr, ptr %93, align 8, !tbaa !75
  %95 = call i64 @strlen(ptr noundef %94) #16
  %96 = getelementptr inbounds nuw i8, ptr %91, i64 %95
  %97 = load ptr, ptr %6, align 8, !tbaa !49
  call void @setPrismValues(ptr noundef %90, ptr noundef %96, ptr noundef %97)
  br label %98

98:                                               ; preds = %89, %74
  store i32 3, ptr %9, align 4
  br label %102

99:                                               ; preds = %54
  %100 = load ptr, ptr %7, align 8, !tbaa !49
  %101 = getelementptr inbounds nuw %struct.lookup_t, ptr %100, i32 1
  store ptr %101, ptr %7, align 8, !tbaa !49
  store i32 0, ptr %9, align 4
  br label %102

102:                                              ; preds = %99, %98
  call void @llvm.lifetime.end.p0(i64 1, ptr %8) #13
  %103 = load i32, ptr %9, align 4
  switch i32 %103, label %167 [
    i32 0, label %104
    i32 3, label %105
  ]

104:                                              ; preds = %102
  br label %26, !llvm.loop !80

105:                                              ; preds = %102, %26
  %106 = load ptr, ptr %7, align 8, !tbaa !49
  %107 = getelementptr inbounds nuw %struct.lookup_t, ptr %106, i32 0, i32 1
  %108 = load ptr, ptr %107, align 8, !tbaa !75
  %109 = icmp eq ptr %108, null
  br i1 %109, label %110, label %150

110:                                              ; preds = %105
  call void @llvm.lifetime.start.p0(i64 1, ptr %10) #13
  %111 = load ptr, ptr %5, align 8, !tbaa !50
  %112 = call zeroext i1 @mapbool(ptr noundef %111)
  %113 = zext i1 %112 to i8
  store i8 %113, ptr %10, align 1, !tbaa !76
  call void @llvm.lifetime.start.p0(i64 1, ptr %11) #13
  %114 = load i8, ptr %10, align 1, !tbaa !76, !range !78, !noundef !79
  %115 = trunc i8 %114 to i1
  %116 = zext i1 %115 to i32
  %117 = load ptr, ptr %5, align 8, !tbaa !50
  %118 = call zeroext i1 @mapBool(ptr noundef %117, i1 noundef zeroext true)
  %119 = zext i1 %118 to i32
  %120 = icmp ne i32 %116, %119
  %121 = zext i1 %120 to i8
  store i8 %121, ptr %11, align 1, !tbaa !76
  %122 = load i8, ptr %11, align 1, !tbaa !76, !range !78, !noundef !79
  %123 = trunc i8 %122 to i1
  br i1 %123, label %124, label %126

124:                                              ; preds = %110
  %125 = load ptr, ptr %5, align 8, !tbaa !50
  call void (ptr, ...) @agwarningf(ptr noundef @.str.15, ptr noundef %125)
  store i8 0, ptr %10, align 1, !tbaa !76
  br label %126

126:                                              ; preds = %124, %110
  %127 = load i8, ptr %10, align 1, !tbaa !76, !range !78, !noundef !79
  %128 = trunc i8 %127 to i1
  br i1 %128, label %129, label %135

129:                                              ; preds = %126
  %130 = load ptr, ptr %6, align 8, !tbaa !49
  %131 = getelementptr inbounds nuw %struct.adjust_data, ptr %130, i32 0, i32 0
  store i32 0, ptr %131, align 8, !tbaa !70
  %132 = load ptr, ptr getelementptr inbounds nuw (%struct.lookup_t, ptr @adjustMode, i32 0, i32 2), align 16, !tbaa !72
  %133 = load ptr, ptr %6, align 8, !tbaa !49
  %134 = getelementptr inbounds nuw %struct.adjust_data, ptr %133, i32 0, i32 1
  store ptr %132, ptr %134, align 8, !tbaa !74
  br label %141

135:                                              ; preds = %126
  %136 = load ptr, ptr %6, align 8, !tbaa !49
  %137 = getelementptr inbounds nuw %struct.adjust_data, ptr %136, i32 0, i32 0
  store i32 18, ptr %137, align 8, !tbaa !70
  %138 = load ptr, ptr getelementptr inbounds nuw (%struct.lookup_t, ptr getelementptr inbounds ([18 x %struct.lookup_t], ptr @adjustMode, i64 0, i64 1), i32 0, i32 2), align 8, !tbaa !72
  %139 = load ptr, ptr %6, align 8, !tbaa !49
  %140 = getelementptr inbounds nuw %struct.adjust_data, ptr %139, i32 0, i32 1
  store ptr %138, ptr %140, align 8, !tbaa !74
  br label %141

141:                                              ; preds = %135, %129
  %142 = load ptr, ptr %6, align 8, !tbaa !49
  %143 = getelementptr inbounds nuw %struct.adjust_data, ptr %142, i32 0, i32 0
  %144 = load i32, ptr %143, align 8, !tbaa !70
  %145 = icmp eq i32 %144, 18
  br i1 %145, label %146, label %149

146:                                              ; preds = %141
  %147 = load ptr, ptr %4, align 8, !tbaa !3
  %148 = load ptr, ptr %6, align 8, !tbaa !49
  call void @setPrismValues(ptr noundef %147, ptr noundef @.str.4, ptr noundef %148)
  br label %149

149:                                              ; preds = %146, %141
  call void @llvm.lifetime.end.p0(i64 1, ptr %11) #13
  call void @llvm.lifetime.end.p0(i64 1, ptr %10) #13
  br label %150

150:                                              ; preds = %149, %105
  br label %151

151:                                              ; preds = %150, %19
  %152 = load i8, ptr @Verbose, align 1, !tbaa !67
  %153 = icmp ne i8 %152, 0
  br i1 %153, label %154, label %166

154:                                              ; preds = %151
  %155 = load ptr, ptr @stderr, align 8, !tbaa !47
  %156 = load ptr, ptr %6, align 8, !tbaa !49
  %157 = getelementptr inbounds nuw %struct.adjust_data, ptr %156, i32 0, i32 1
  %158 = load ptr, ptr %157, align 8, !tbaa !74
  %159 = load ptr, ptr %6, align 8, !tbaa !49
  %160 = getelementptr inbounds nuw %struct.adjust_data, ptr %159, i32 0, i32 2
  %161 = load i32, ptr %160, align 8, !tbaa !81
  %162 = load ptr, ptr %6, align 8, !tbaa !49
  %163 = getelementptr inbounds nuw %struct.adjust_data, ptr %162, i32 0, i32 3
  %164 = load double, ptr %163, align 8, !tbaa !82
  %165 = call i32 (ptr, ptr, ...) @fprintf(ptr noundef %155, ptr noundef @.str.16, ptr noundef %158, i32 noundef %161, double noundef %164) #13
  br label %166

166:                                              ; preds = %154, %151
  call void @llvm.lifetime.end.p0(i64 8, ptr %7) #13
  ret void

167:                                              ; preds = %102
  unreachable
}