; Function Attrs: nounwind uwtable
define internal fastcc void @getAdjustMode(ptr noundef %0, ptr noundef %1, ptr noundef captures(none) %2) unnamed_addr #0 {
  %4 = alloca i32, align 4
  %5 = alloca i32, align 4
  %6 = icmp eq ptr %1, null
  br i1 %6, label %10, label %7

7:                                                ; preds = %3
  %8 = load i8, ptr %1, align 1, !tbaa !48
  %9 = icmp eq i8 %8, 0
  br i1 %9, label %10, label %.preheader

10:                                               ; preds = %7, %3
  store i32 0, ptr %2, align 8, !tbaa !56
  %11 = getelementptr inbounds nuw i8, ptr %2, i64 8
  store ptr @.str.17, ptr %11, align 8, !tbaa !58
  br label %71

.preheader:                                       ; preds = %7, %47
  %12 = phi ptr [ %50, %47 ], [ @.str.18, %7 ]
  %.057 = phi ptr [ %48, %47 ], [ getelementptr inbounds nuw (i8, ptr @adjustMode, i64 24), %7 ]
  %13 = tail call i32 @strcasecmp(ptr noundef nonnull %1, ptr noundef nonnull %12) #24
  %14 = icmp eq i32 %13, 0
  %15 = load i32, ptr %.057, align 8, !tbaa !59
  %16 = icmp eq i32 %15, 18
  br i1 %16, label %17, label %22

17:                                               ; preds = %.preheader
  %18 = tail call i64 @strlen(ptr noundef nonnull dereferenceable(1) %12) #24
  %19 = tail call i32 @strncasecmp(ptr noundef nonnull %1, ptr noundef nonnull %12, i64 noundef %18) #24
  %20 = icmp eq i32 %19, 0
  %21 = zext i1 %20 to i32
  br label %22

22:                                               ; preds = %17, %.preheader
  %23 = phi i32 [ 0, %.preheader ], [ %21, %17 ]
  %24 = zext i1 %14 to i32
  %25 = or i32 %23, %24
  %.not46 = icmp eq i32 %25, 0
  br i1 %.not46, label %47, label %26

26:                                               ; preds = %22
  %27 = getelementptr inbounds nuw i8, ptr %.057, i64 16
  %28 = load ptr, ptr %27, align 8, !tbaa !61
  %29 = icmp eq ptr %28, null
  br i1 %29, label %.thread62, label %31

.thread62:                                        ; preds = %26
  tail call void (ptr, ...) @agwarningf(ptr noundef nonnull @.str.14, ptr noundef nonnull %12) #20
  store i32 18, ptr %2, align 8, !tbaa !56
  %30 = getelementptr inbounds nuw i8, ptr %2, i64 8
  store ptr @.str.18, ptr %30, align 8, !tbaa !58
  br label %34

31:                                               ; preds = %26
  store i32 %15, ptr %2, align 8, !tbaa !56
  %32 = getelementptr inbounds nuw i8, ptr %2, i64 8
  store ptr %28, ptr %32, align 8, !tbaa !58
  %33 = icmp eq i32 %15, 18
  br i1 %33, label %34, label %.thread

34:                                               ; preds = %.thread62, %31
  %.264 = phi ptr [ getelementptr inbounds nuw (i8, ptr @adjustMode, i64 24), %.thread62 ], [ %.057, %31 ]
  %35 = getelementptr inbounds nuw i8, ptr %.264, i64 8
  %36 = load ptr, ptr %35, align 8, !tbaa !62
  %37 = tail call i64 @strlen(ptr noundef nonnull dereferenceable(1) %36) #24
  %38 = getelementptr inbounds nuw i8, ptr %1, i64 %37
  call void @llvm.lifetime.start.p0(i64 4, ptr nonnull %5) #20
  %39 = call i32 (ptr, ptr, ...) @__isoc99_sscanf(ptr noundef nonnull readonly %38, ptr noundef nonnull @.str.45, ptr noundef nonnull %5) #20
  %40 = icmp sgt i32 %39, 0
  %41 = load i32, ptr %5, align 4
  %42 = icmp sgt i32 %41, -1
  %or.cond.i = select i1 %40, i1 %42, i1 false
  %spec.select.i = select i1 %or.cond.i, i32 %41, i32 1000
  %43 = getelementptr inbounds nuw i8, ptr %2, i64 16
  store i32 %spec.select.i, ptr %43, align 8, !tbaa !63
  %44 = call ptr @agattr(ptr noundef %0, i32 noundef 0, ptr noundef nonnull @.str.46, ptr noundef null) #20
  %45 = call double @late_double(ptr noundef %0, ptr noundef %44, double noundef -4.000000e+00, double noundef -1.000000e+10) #20
  %46 = getelementptr inbounds nuw i8, ptr %2, i64 24
  store double %45, ptr %46, align 8, !tbaa !64
  call void @llvm.lifetime.end.p0(i64 4, ptr nonnull %5) #20
  br label %.thread

47:                                               ; preds = %22
  %48 = getelementptr inbounds nuw i8, ptr %.057, i64 24
  %49 = getelementptr inbounds nuw i8, ptr %.057, i64 32
  %50 = load ptr, ptr %49, align 8, !tbaa !62
  %.not = icmp eq ptr %50, null
  br i1 %.not, label %.thread, label %.preheader

.thread:                                          ; preds = %47, %31, %34
  %.1 = phi ptr [ %.264, %34 ], [ %.057, %31 ], [ getelementptr inbounds nuw (i8, ptr @adjustMode, i64 408), %47 ]
  %51 = getelementptr inbounds nuw i8, ptr %.1, i64 8
  %52 = load ptr, ptr %51, align 8, !tbaa !62
  %53 = icmp eq ptr %52, null
  br i1 %53, label %54, label %71

54:                                               ; preds = %.thread
  %55 = call zeroext i1 @mapbool(ptr noundef nonnull %1) #20
  %56 = call zeroext i1 @mapBool(ptr noundef nonnull %1, i1 noundef zeroext true) #20
  %57 = xor i1 %55, %56
  br i1 %57, label %.critedge, label %58

.critedge:                                        ; preds = %54
  call void (ptr, ...) @agwarningf(ptr noundef nonnull @.str.15, ptr noundef nonnull %1) #20
  br label %61

58:                                               ; preds = %54
  br i1 %55, label %59, label %61

59:                                               ; preds = %58
  store i32 0, ptr %2, align 8, !tbaa !56
  %60 = getelementptr inbounds nuw i8, ptr %2, i64 8
  store ptr @.str.17, ptr %60, align 8, !tbaa !58
  br label %71

61:                                               ; preds = %58, %.critedge
  store i32 18, ptr %2, align 8, !tbaa !56
  %62 = getelementptr inbounds nuw i8, ptr %2, i64 8
  store ptr @.str.18, ptr %62, align 8, !tbaa !58
  call void @llvm.lifetime.start.p0(i64 4, ptr nonnull %4) #20
  %63 = call i32 (ptr, ptr, ...) @__isoc99_sscanf(ptr noundef nonnull @.str.4, ptr noundef nonnull @.str.45, ptr noundef nonnull %4) #20
  %64 = icmp sgt i32 %63, 0
  %65 = load i32, ptr %4, align 4
  %66 = icmp sgt i32 %65, -1
  %or.cond.i49 = select i1 %64, i1 %66, i1 false
  %spec.select.i50 = select i1 %or.cond.i49, i32 %65, i32 1000
  %67 = getelementptr inbounds nuw i8, ptr %2, i64 16
  store i32 %spec.select.i50, ptr %67, align 8, !tbaa !63
  %68 = call ptr @agattr(ptr noundef %0, i32 noundef 0, ptr noundef nonnull @.str.46, ptr noundef null) #20
  %69 = call double @late_double(ptr noundef %0, ptr noundef %68, double noundef -4.000000e+00, double noundef -1.000000e+10) #20
  %70 = getelementptr inbounds nuw i8, ptr %2, i64 24
  store double %69, ptr %70, align 8, !tbaa !64
  call void @llvm.lifetime.end.p0(i64 4, ptr nonnull %4) #20
  br label %71

71:                                               ; preds = %59, %61, %.thread, %10
  %72 = load i8, ptr @Verbose, align 1, !tbaa !48
  %.not48 = icmp eq i8 %72, 0
  br i1 %.not48, label %82, label %73

73:                                               ; preds = %71
  %74 = load ptr, ptr @stderr, align 8, !tbaa !7
  %75 = getelementptr inbounds nuw i8, ptr %2, i64 8
  %76 = load ptr, ptr %75, align 8, !tbaa !58
  %77 = getelementptr inbounds nuw i8, ptr %2, i64 16
  %78 = load i32, ptr %77, align 8, !tbaa !63
  %79 = getelementptr inbounds nuw i8, ptr %2, i64 24
  %80 = load double, ptr %79, align 8, !tbaa !64
  %81 = call i32 (ptr, ptr, ...) @fprintf(ptr noundef %74, ptr noundef nonnull @.str.16, ptr noundef %76, i32 noundef %78, double noundef %80) #22
  br label %82

82:                                               ; preds = %73, %71
  ret void
}